target datalayout = "e-m:e-p270:32:32-p271:32:32-p272:64:64-i64:64-i128:128-f80:128-n8:16:32:64-S128"
target triple = "x86_64-pc-linux-gnu"

%struct.OSQPSolver = type { ptr, ptr, ptr, ptr }
%struct.OSQPWorkspace_ = type { ptr, ptr, ptr, ptr, ptr, ptr, ptr, ptr, ptr, ptr, ptr, ptr, ptr, ptr, ptr, ptr, ptr, ptr, ptr, ptr, ptr, ptr, ptr, ptr, ptr, ptr, double, double, double, ptr, i64, i64, i64, i64, ptr }
%struct.linsys_solver = type { i32, ptr, ptr, ptr, ptr, ptr, ptr, ptr, ptr, i64 }

; Function Attrs: nounwind uwtable
define void @osqp_cold_start(ptr noundef %0) #0 {
  %2 = alloca ptr, align 8
  %3 = alloca ptr, align 8
  store ptr %0, ptr %2, align 8
  %4 = load ptr, ptr %2, align 8
  %5 = getelementptr inbounds %struct.OSQPSolver, ptr %4, i32 0, i32 3
  %6 = load ptr, ptr %5, align 8
  store ptr %6, ptr %3, align 8
  %7 = load ptr, ptr %3, align 8
  %8 = getelementptr inbounds %struct.OSQPWorkspace_, ptr %7, i32 0, i32 6
  %9 = load ptr, ptr %8, align 8
  call void @OSQPVectorf_set_scalar(ptr noundef %9, double noundef 0.000000e+00)
  %10 = load ptr, ptr %3, align 8
  %11 = getelementptr inbounds %struct.OSQPWorkspace_, ptr %10, i32 0, i32 8
  %12 = load ptr, ptr %11, align 8
  call void @OSQPVectorf_set_scalar(ptr noundef %12, double noundef 0.000000e+00)
  %13 = load ptr, ptr %3, align 8
  %14 = getelementptr inbounds %struct.OSQPWorkspace_, ptr %13, i32 0, i32 7
  %15 = load ptr, ptr %14, align 8
  call void @OSQPVectorf_set_scalar(ptr noundef %15, double noundef 0.000000e+00)
  %16 = load ptr, ptr %3, align 8
  %17 = getelementptr inbounds %struct.OSQPWorkspace_, ptr %16, i32 0, i32 1
  %18 = load ptr, ptr %17, align 8
  %19 = getelementptr inbounds %struct.linsys_solver, ptr %18, i32 0, i32 4
  %20 = load ptr, ptr %19, align 8
  %21 = load ptr, ptr %3, align 8
  %22 = getelementptr inbounds %struct.OSQPWorkspace_, ptr %21, i32 0, i32 1
  %23 = load ptr, ptr %22, align 8
  %24 = load ptr, ptr %3, align 8
  %25 = getelementptr inbounds %struct.OSQPWorkspace_, ptr %24, i32 0, i32 6
  %26 = load ptr, ptr %25, align 8
  call void %20(ptr noundef %23, ptr noundef %26)
  ret void
}