; Function Attrs: nounwind uwtable
define void @osqp_cold_start(ptr nocapture noundef readonly %0) local_unnamed_addr #0 {
  %2 = getelementptr inbounds i8, ptr %0, i64 24
  %3 = load ptr, ptr %2, align 8
  %4 = getelementptr inbounds i8, ptr %3, i64 48
  %5 = load ptr, ptr %4, align 8
  tail call void @OSQPVectorf_set_scalar(ptr noundef %5, double noundef 0.000000e+00) #15
  %6 = getelementptr inbounds i8, ptr %3, i64 64
  %7 = load ptr, ptr %6, align 8
  tail call void @OSQPVectorf_set_scalar(ptr noundef %7, double noundef 0.000000e+00) #15
  %8 = getelementptr inbounds i8, ptr %3, i64 56
  %9 = load ptr, ptr %8, align 8
  tail call void @OSQPVectorf_set_scalar(ptr noundef %9, double noundef 0.000000e+00) #15
  %10 = getelementptr inbounds i8, ptr %3, i64 8
  %11 = load ptr, ptr %10, align 8
  %12 = getelementptr inbounds i8, ptr %11, i64 32
  %13 = load ptr, ptr %12, align 8
  %14 = load ptr, ptr %4, align 8
  tail call void %13(ptr noundef %11, ptr noundef %14) #15
  ret void
}